target datalayout = "e-m:e-p270:32:32-p271:32:32-p272:64:64-i64:64-i128:128-f80:128-n8:16:32:64-S128"
target triple = "x86_64-pc-linux-gnu"

%struct.uv_loop_s = type { ptr, i32, %struct.uv__queue, %union.anon, ptr, i32, i64, i32, %struct.uv__queue, %struct.uv__queue, ptr, i32, i32, %struct.uv__queue, %union.pthread_mutex_t, %struct.uv_async_s, %union.pthread_rwlock_t, ptr, %struct.uv__queue, %struct.uv__queue, %struct.uv__queue, %struct.uv__queue, %struct.uv__queue, ptr, %struct.uv__io_s, i32, %struct.anon, i64, i64, [2 x i32], %struct.uv__io_s, %struct.uv_signal_s, i32, %struct.uv__io_s, ptr, i32 }
%union.anon = type { ptr }
%union.pthread_mutex_t = type { %struct.__pthread_mutex_s }
%struct.__pthread_mutex_s = type { i32, i32, i32, i32, i32, i16, i16, %struct.__pthread_internal_list }
%struct.__pthread_internal_list = type { ptr, ptr }
%struct.uv_async_s = type { ptr, ptr, i32, ptr, %struct.uv__queue, %union.anon.0, ptr, i32, ptr, %struct.uv__queue, i32 }
%union.anon.0 = type { [4 x ptr] }
%union.pthread_rwlock_t = type { %struct.__pthread_rwlock_arch_t }
%struct.__pthread_rwlock_arch_t = type { i32, i32, i32, i32, i32, i32, i32, i32, i8, [7 x i8], i64, i32 }
%struct.uv__queue = type { ptr, ptr }
%struct.anon = type { ptr, i32 }
%struct.uv_signal_s = type { ptr, ptr, i32, ptr, %struct.uv__queue, %union.anon.1, ptr, i32, ptr, i32, %struct.anon.2, i32, i32 }
%union.anon.1 = type { [4 x ptr] }
%struct.anon.2 = type { ptr, ptr, ptr, i32 }
%struct.uv__io_s = type { ptr, %struct.uv__queue, %struct.uv__queue, i32, i32, i32 }
%struct.uv_handle_s = type { ptr, ptr, i32, ptr, %struct.uv__queue, %union.anon.3, ptr, i32 }
%union.anon.3 = type { [4 x ptr] }

; Function Attrs: nounwind uwtable
define internal i32 @uv__signal_loop_once_init(ptr noundef %0) #0 {
  %2 = alloca i32, align 4
  %3 = alloca ptr, align 8
  %4 = alloca i32, align 4
  %5 = alloca i32, align 4
  store ptr %0, ptr %3, align 8
  call void @llvm.lifetime.start.p0(i64 4, ptr %4) #9
  %6 = load ptr, ptr %3, align 8
  %7 = getelementptr inbounds nuw %struct.uv_loop_s, ptr %6, i32 0, i32 29
  %8 = getelementptr inbounds [2 x i32], ptr %7, i64 0, i64 0
  %9 = load i32, ptr %8, align 8
  %10 = icmp ne i32 %9, -1
  br i1 %10, label %11, label %12

11:                                               ; preds = %1
  store i32 0, ptr %2, align 4
  store i32 1, ptr %5, align 4
  br label %31

12:                                               ; preds = %1
  %13 = load ptr, ptr %3, align 8
  %14 = getelementptr inbounds nuw %struct.uv_loop_s, ptr %13, i32 0, i32 29
  %15 = getelementptr inbounds [2 x i32], ptr %14, i64 0, i64 0
  %16 = call i32 @uv__make_pipe(ptr noundef %15, i32 noundef 64)
  store i32 %16, ptr %4, align 4
  %17 = load i32, ptr %4, align 4
  %18 = icmp ne i32 %17, 0
  br i1 %18, label %19, label %21

19:                                               ; preds = %12
  %20 = load i32, ptr %4, align 4
  store i32 %20, ptr %2, align 4
  store i32 1, ptr %5, align 4
  br label %31

21:                                               ; preds = %12
  %22 = load ptr, ptr %3, align 8
  %23 = getelementptr inbounds nuw %struct.uv_loop_s, ptr %22, i32 0, i32 30
  %24 = load ptr, ptr %3, align 8
  %25 = getelementptr inbounds nuw %struct.uv_loop_s, ptr %24, i32 0, i32 29
  %26 = getelementptr inbounds [2 x i32], ptr %25, i64 0, i64 0
  %27 = load i32, ptr %26, align 8
  call void @uv__io_init(ptr noundef %23, ptr noundef @uv__signal_event, i32 noundef %27)
  %28 = load ptr, ptr %3, align 8
  %29 = load ptr, ptr %3, align 8
  %30 = getelementptr inbounds nuw %struct.uv_loop_s, ptr %29, i32 0, i32 30
  call void @uv__io_start(ptr noundef %28, ptr noundef %30, i32 noundef 1)
  store i32 0, ptr %2, align 4
  store i32 1, ptr %5, align 4
  br label %31

31:                                               ; preds = %21, %19, %11
  call void @llvm.lifetime.end.p0(i64 4, ptr %4) #9
  %32 = load i32, ptr %2, align 4
  ret i32 %32
}

; Function Attrs: nounwind uwtable
define hidden i32 @uv__signal_loop_fork(ptr noundef %0) #0 {
  %2 = alloca i32, align 4
  %3 = alloca ptr, align 8
  %4 = alloca ptr, align 8
  %5 = alloca i32, align 4
  %6 = alloca ptr, align 8
  %7 = alloca ptr, align 8
  store ptr %0, ptr %3, align 8
  call void @llvm.lifetime.start.p0(i64 8, ptr %4) #9
  %8 = load ptr, ptr %3, align 8
  %9 = getelementptr inbounds nuw %struct.uv_loop_s, ptr %8, i32 0, i32 29
  %10 = getelementptr inbounds [2 x i32], ptr %9, i64 0, i64 0
  %11 = load i32, ptr %10, align 8
  %12 = icmp eq i32 %11, -1
  br i1 %12, label %13, label %14

13:                                               ; preds = %1
  store i32 0, ptr %2, align 4
  store i32 1, ptr %5, align 4
  br label %67

14:                                               ; preds = %1
  %15 = load ptr, ptr %3, align 8
  %16 = load ptr, ptr %3, align 8
  %17 = getelementptr inbounds nuw %struct.uv_loop_s, ptr %16, i32 0, i32 30
  call void @uv__io_stop(ptr noundef %15, ptr noundef %17, i32 noundef 1)
  %18 = load ptr, ptr %3, align 8
  %19 = getelementptr inbounds nuw %struct.uv_loop_s, ptr %18, i32 0, i32 29
  %20 = getelementptr inbounds [2 x i32], ptr %19, i64 0, i64 0
  %21 = load i32, ptr %20, align 8
  %22 = call i32 @uv__close(i32 noundef %21)
  %23 = load ptr, ptr %3, align 8
  %24 = getelementptr inbounds nuw %struct.uv_loop_s, ptr %23, i32 0, i32 29
  %25 = getelementptr inbounds [2 x i32], ptr %24, i64 0, i64 1
  %26 = load i32, ptr %25, align 4
  %27 = call i32 @uv__close(i32 noundef %26)
  %28 = load ptr, ptr %3, align 8
  %29 = getelementptr inbounds nuw %struct.uv_loop_s, ptr %28, i32 0, i32 29
  %30 = getelementptr inbounds [2 x i32], ptr %29, i64 0, i64 0
  store i32 -1, ptr %30, align 8
  %31 = load ptr, ptr %3, align 8
  %32 = getelementptr inbounds nuw %struct.uv_loop_s, ptr %31, i32 0, i32 29
  %33 = getelementptr inbounds [2 x i32], ptr %32, i64 0, i64 1
  store i32 -1, ptr %33, align 4
  %34 = load ptr, ptr %3, align 8
  %35 = getelementptr inbounds nuw %struct.uv_loop_s, ptr %34, i32 0, i32 2
  %36 = getelementptr inbounds nuw %struct.uv__queue, ptr %35, i32 0, i32 0
  %37 = load ptr, ptr %36, align 8
  store ptr %37, ptr %4, align 8
  br label %38

38:                                               ; preds = %60, %14
  %39 = load ptr, ptr %4, align 8
  %40 = load ptr, ptr %3, align 8
  %41 = getelementptr inbounds nuw %struct.uv_loop_s, ptr %40, i32 0, i32 2
  %42 = icmp ne ptr %39, %41
  br i1 %42, label %43, label %64

43:                                               ; preds = %38
  call void @llvm.lifetime.start.p0(i64 8, ptr %6) #9
  %44 = load ptr, ptr %4, align 8
  %45 = getelementptr inbounds i8, ptr %44, i64 -32
  store ptr %45, ptr %6, align 8
  call void @llvm.lifetime.start.p0(i64 8, ptr %7) #9
  %46 = load ptr, ptr %6, align 8
  %47 = getelementptr inbounds nuw %struct.uv_handle_s, ptr %46, i32 0, i32 2
  %48 = load i32, ptr %47, align 8
  %49 = icmp ne i32 %48, 16
  br i1 %49, label %50, label %51

50:                                               ; preds = %43
  store i32 4, ptr %5, align 4
  br label %57

51:                                               ; preds = %43
  %52 = load ptr, ptr %6, align 8
  store ptr %52, ptr %7, align 8
  %53 = load ptr, ptr %7, align 8
  %54 = getelementptr inbounds nuw %struct.uv_signal_s, ptr %53, i32 0, i32 11
  store i32 0, ptr %54, align 8
  %55 = load ptr, ptr %7, align 8
  %56 = getelementptr inbounds nuw %struct.uv_signal_s, ptr %55, i32 0, i32 12
  store i32 0, ptr %56, align 4
  store i32 0, ptr %5, align 4
  br label %57

57:                                               ; preds = %51, %50
  call void @llvm.lifetime.end.p0(i64 8, ptr %7) #9
  call void @llvm.lifetime.end.p0(i64 8, ptr %6) #9
  %58 = load i32, ptr %5, align 4
  switch i32 %58, label %69 [
    i32 0, label %59
    i32 4, label %60
  ]

59:                                               ; preds = %57
  br label %60

60:                                               ; preds = %59, %57
  %61 = load ptr, ptr %4, align 8
  %62 = getelementptr inbounds nuw %struct.uv__queue, ptr %61, i32 0, i32 0
  %63 = load ptr, ptr %62, align 8
  store ptr %63, ptr %4, align 8
  br label %38

64:                                               ; preds = %38
  %65 = load ptr, ptr %3, align 8
  %66 = call i32 @uv__signal_loop_once_init(ptr noundef %65)
  store i32 %66, ptr %2, align 4
  store i32 1, ptr %5, align 4
  br label %67

67:                                               ; preds = %64, %13
  call void @llvm.lifetime.end.p0(i64 8, ptr %4) #9
  %68 = load i32, ptr %2, align 4
  ret i32 %68

69:                                               ; preds = %57
  unreachable
}