; Function Attrs: nounwind uwtable
define hidden i32 @uv__signal_loop_fork(ptr noundef %0) local_unnamed_addr #0 {
  %2 = getelementptr inbounds nuw i8, ptr %0, i64 552
  %3 = load i32, ptr %2, align 8
  %4 = icmp eq i32 %3, -1
  br i1 %4, label %uv__signal_loop_once_init.exit, label %5

5:                                                ; preds = %1
  %6 = getelementptr inbounds nuw i8, ptr %0, i64 560
  tail call void @uv__io_stop(ptr noundef nonnull %0, ptr noundef nonnull %6, i32 noundef 1) #10
  %7 = load i32, ptr %2, align 8
  %8 = tail call i32 @uv__close(i32 noundef %7) #10
  %9 = getelementptr inbounds nuw i8, ptr %0, i64 556
  %10 = load i32, ptr %9, align 4
  %11 = tail call i32 @uv__close(i32 noundef %10) #10
  store i32 -1, ptr %2, align 8
  store i32 -1, ptr %9, align 4
  %12 = getelementptr inbounds nuw i8, ptr %0, i64 16
  %.01719 = load ptr, ptr %12, align 8
  %.not20 = icmp eq ptr %.01719, %12
  br i1 %.not20, label %._crit_edge.thread, label %.lr.ph

.lr.ph:                                           ; preds = %5, %18
  %.01721 = phi ptr [ %.017, %18 ], [ %.01719, %5 ]
  %13 = getelementptr inbounds i8, ptr %.01721, i64 -16
  %14 = load i32, ptr %13, align 8
  %.not18 = icmp eq i32 %14, 16
  br i1 %.not18, label %15, label %18

15:                                               ; preds = %.lr.ph
  %16 = getelementptr inbounds nuw i8, ptr %.01721, i64 112
  store i32 0, ptr %16, align 8
  %17 = getelementptr inbounds nuw i8, ptr %.01721, i64 116
  store i32 0, ptr %17, align 4
  br label %18

18:                                               ; preds = %.lr.ph, %15
  %.017 = load ptr, ptr %.01721, align 8
  %.not = icmp eq ptr %.017, %12
  br i1 %.not, label %._crit_edge, label %.lr.ph

._crit_edge:                                      ; preds = %18
  %.pre = load i32, ptr %2, align 8
  %19 = icmp eq i32 %.pre, -1
  br i1 %19, label %._crit_edge.thread, label %uv__signal_loop_once_init.exit

._crit_edge.thread:                               ; preds = %5, %._crit_edge
  %20 = tail call i32 @uv__make_pipe(ptr noundef nonnull %2, i32 noundef 64) #10
  %.not9.i = icmp eq i32 %20, 0
  br i1 %.not9.i, label %21, label %uv__signal_loop_once_init.exit

21:                                               ; preds = %._crit_edge.thread
  %22 = load i32, ptr %2, align 8
  tail call void @uv__io_init(ptr noundef nonnull %6, ptr noundef nonnull @uv__signal_event, i32 noundef %22) #10
  tail call void @uv__io_start(ptr noundef nonnull %0, ptr noundef nonnull %6, i32 noundef 1) #10
  br label %uv__signal_loop_once_init.exit

uv__signal_loop_once_init.exit:                   ; preds = %21, %._crit_edge.thread, %._crit_edge, %1
  %.0 = phi i32 [ 0, %1 ], [ 0, %21 ], [ 0, %._crit_edge ], [ %20, %._crit_edge.thread ]
  ret i32 %.0
}